target datalayout = "e-m:e-p270:32:32-p271:32:32-p272:64:64-i64:64-i128:128-f80:128-n8:16:32:64-S128"
target triple = "x86_64-pc-linux-gnu"

%struct.LargeObjectDesc = type { i32, ptr, i32, i64, i32 }

@fscxt = internal global ptr null, align 8
@TopTransactionResourceOwner = external global ptr, align 8
@cookies = internal global ptr null, align 8
@cookies_size = internal global i32 0, align 4
@lo_cleanup_needed = internal global i8 0, align 1

; Function Attrs: nounwind uwtable
define internal void @closeLOfd(i32 noundef %0) #0 {
  %2 = alloca i32, align 4
  %3 = alloca ptr, align 8
  store i32 %0, ptr %2, align 4
  call void @llvm.lifetime.start.p0(i64 8, ptr %3) #8
  %4 = load ptr, ptr @cookies, align 8
  %5 = load i32, ptr %2, align 4
  %6 = sext i32 %5 to i64
  %7 = getelementptr inbounds ptr, ptr %4, i64 %6
  %8 = load ptr, ptr %7, align 8
  store ptr %8, ptr %3, align 8
  %9 = load ptr, ptr @cookies, align 8
  %10 = load i32, ptr %2, align 4
  %11 = sext i32 %10 to i64
  %12 = getelementptr inbounds ptr, ptr %9, i64 %11
  store ptr null, ptr %12, align 8
  %13 = load ptr, ptr %3, align 8
  %14 = getelementptr inbounds nuw %struct.LargeObjectDesc, ptr %13, i32 0, i32 1
  %15 = load ptr, ptr %14, align 8
  %16 = icmp ne ptr %15, null
  br i1 %16, label %17, label %22

17:                                               ; preds = %1
  %18 = load ptr, ptr %3, align 8
  %19 = getelementptr inbounds nuw %struct.LargeObjectDesc, ptr %18, i32 0, i32 1
  %20 = load ptr, ptr %19, align 8
  %21 = load ptr, ptr @TopTransactionResourceOwner, align 8
  call void @UnregisterSnapshotFromOwner(ptr noundef %20, ptr noundef %21)
  br label %22

22:                                               ; preds = %17, %1
  %23 = load ptr, ptr %3, align 8
  call void @inv_close(ptr noundef %23)
  call void @llvm.lifetime.end.p0(i64 8, ptr %3) #8
  ret void
}

; Function Attrs: nounwind uwtable
define dso_local void @AtEOXact_LargeObject(i1 noundef zeroext %0) #0 {
  %2 = alloca i8, align 1
  %3 = alloca i32, align 4
  %4 = alloca i32, align 4
  %5 = zext i1 %0 to i8
  store i8 %5, ptr %2, align 1
  call void @llvm.lifetime.start.p0(i64 4, ptr %3) #8
  %6 = load i8, ptr @lo_cleanup_needed, align 1, !range !6, !noundef !7
  %7 = trunc i8 %6 to i1
  br i1 %7, label %9, label %8

8:                                                ; preds = %1
  store i32 1, ptr %4, align 4
  br label %39

9:                                                ; preds = %1
  %10 = load i8, ptr %2, align 1, !range !6, !noundef !7
  %11 = trunc i8 %10 to i1
  br i1 %11, label %12, label %31

12:                                               ; preds = %9
  store i32 0, ptr %3, align 4
  br label %13

13:                                               ; preds = %27, %12
  %14 = load i32, ptr %3, align 4
  %15 = load i32, ptr @cookies_size, align 4
  %16 = icmp slt i32 %14, %15
  br i1 %16, label %17, label %30

17:                                               ; preds = %13
  %18 = load ptr, ptr @cookies, align 8
  %19 = load i32, ptr %3, align 4
  %20 = sext i32 %19 to i64
  %21 = getelementptr inbounds ptr, ptr %18, i64 %20
  %22 = load ptr, ptr %21, align 8
  %23 = icmp ne ptr %22, null
  br i1 %23, label %24, label %26

24:                                               ; preds = %17
  %25 = load i32, ptr %3, align 4
  call void @closeLOfd(i32 noundef %25)
  br label %26

26:                                               ; preds = %24, %17
  br label %27

27:                                               ; preds = %26
  %28 = load i32, ptr %3, align 4
  %29 = add i32 %28, 1
  store i32 %29, ptr %3, align 4
  br label %13, !llvm.loop !11

30:                                               ; preds = %13
  br label %31

31:                                               ; preds = %30, %9
  store ptr null, ptr @cookies, align 8
  store i32 0, ptr @cookies_size, align 4
  %32 = load ptr, ptr @fscxt, align 8
  %33 = icmp ne ptr %32, null
  br i1 %33, label %34, label %36

34:                                               ; preds = %31
  %35 = load ptr, ptr @fscxt, align 8
  call void @MemoryContextDelete(ptr noundef %35)
  br label %36

36:                                               ; preds = %34, %31
  store ptr null, ptr @fscxt, align 8
  %37 = load i8, ptr %2, align 1, !range !6, !noundef !7
  %38 = trunc i8 %37 to i1
  call void @close_lo_relation(i1 noundef zeroext %38)
  store i8 0, ptr @lo_cleanup_needed, align 1
  store i32 0, ptr %4, align 4
  br label %39

39:                                               ; preds = %36, %8
  call void @llvm.lifetime.end.p0(i64 4, ptr %3) #8
  %40 = load i32, ptr %4, align 4
  switch i32 %40, label %42 [
    i32 0, label %41
    i32 1, label %41
  ]

41:                                               ; preds = %39, %39
  ret void

42:                                               ; preds = %39
  unreachable
}