; Function Attrs: nounwind uwtable
define dso_local void @AtEOXact_LargeObject(i1 noundef zeroext %0) local_unnamed_addr #0 {
  %.b7 = load i1, ptr @lo_cleanup_needed, align 1
  br i1 %.b7, label %2, label %22

2:                                                ; preds = %1
  %3 = load i32, ptr @cookies_size, align 4
  %4 = icmp sgt i32 %3, 0
  %or.cond = select i1 %0, i1 %4, i1 false
  br i1 %or.cond, label %.lr.ph.preheader, label %.loopexit

.lr.ph.preheader:                                 ; preds = %2
  %.pre12 = load ptr, ptr @cookies, align 8
  br label %.lr.ph

.lr.ph:                                           ; preds = %.lr.ph.preheader, %14
  %5 = phi i32 [ %3, %.lr.ph.preheader ], [ %15, %14 ]
  %6 = phi ptr [ %.pre12, %.lr.ph.preheader ], [ %16, %14 ]
  %indvars.iv = phi i64 [ 0, %.lr.ph.preheader ], [ %indvars.iv.next, %14 ]
  %7 = getelementptr inbounds nuw ptr, ptr %6, i64 %indvars.iv
  %8 = load ptr, ptr %7, align 8
  %.not8 = icmp eq ptr %8, null
  br i1 %.not8, label %14, label %9

9:                                                ; preds = %.lr.ph
  store ptr null, ptr %7, align 8
  %10 = getelementptr inbounds nuw i8, ptr %8, i64 8
  %11 = load ptr, ptr %10, align 8
  %.not.i = icmp eq ptr %11, null
  br i1 %.not.i, label %closeLOfd.exit, label %12

12:                                               ; preds = %9
  %13 = load ptr, ptr @TopTransactionResourceOwner, align 8
  tail call void @UnregisterSnapshotFromOwner(ptr noundef nonnull %11, ptr noundef %13) #10
  br label %closeLOfd.exit

closeLOfd.exit:                                   ; preds = %9, %12
  tail call void @inv_close(ptr noundef nonnull %8) #10
  %.pre = load ptr, ptr @cookies, align 8
  %.pre13 = load i32, ptr @cookies_size, align 4
  br label %14

14:                                               ; preds = %.lr.ph, %closeLOfd.exit
  %15 = phi i32 [ %5, %.lr.ph ], [ %.pre13, %closeLOfd.exit ]
  %16 = phi ptr [ %6, %.lr.ph ], [ %.pre, %closeLOfd.exit ]
  %indvars.iv.next = add nuw nsw i64 %indvars.iv, 1
  %17 = sext i32 %15 to i64
  %18 = icmp slt i64 %indvars.iv.next, %17
  br i1 %18, label %.lr.ph, label %.loopexit, !llvm.loop !11

.loopexit:                                        ; preds = %14, %2
  store ptr null, ptr @cookies, align 8
  store i32 0, ptr @cookies_size, align 4
  %19 = load ptr, ptr @fscxt, align 8
  %.not = icmp eq ptr %19, null
  br i1 %.not, label %21, label %20

20:                                               ; preds = %.loopexit
  tail call void @MemoryContextDelete(ptr noundef nonnull %19) #10
  br label %21

21:                                               ; preds = %20, %.loopexit
  store ptr null, ptr @fscxt, align 8
  tail call void @close_lo_relation(i1 noundef zeroext %0) #10
  store i1 false, ptr @lo_cleanup_needed, align 1
  br label %22

22:                                               ; preds = %1, %21
  ret void
}